; Function Attrs: nounwind uwtable
define ptr @l___private_Lean_Meta_Tactic_Grind_ForallProp_0__Lean_Meta_Grind_isEqTrueHyp_x3f(ptr noundef %0) local_unnamed_addr #0 {
  %2 = load ptr, ptr @l___private_Lean_Meta_Tactic_Grind_ForallProp_0__Lean_Meta_Grind_isEqTrueHyp_x3f___closed__1, align 8, !tbaa !10
  %3 = tail call ptr @l_Lean_Expr_cleanupAnnotations(ptr noundef %0) #5
  %4 = tail call zeroext i8 @l_Lean_Expr_isApp(ptr noundef %3) #5
  %5 = icmp eq i8 %4, 0
  br i1 %5, label %6, label %17

6:                                                ; preds = %1
  %7 = ptrtoint ptr %3 to i64
  %8 = and i64 %7, 1
  %.not37 = icmp eq i64 %8, 0
  br i1 %.not37, label %9, label %lean_dec.exit25

9:                                                ; preds = %6
  %10 = load i32, ptr %3, align 4, !tbaa !4
  %11 = icmp sgt i32 %10, 1
  br i1 %11, label %12, label %14, !prof !9

12:                                               ; preds = %9
  %13 = add nsw i32 %10, -1
  store i32 %13, ptr %3, align 4, !tbaa !4
  br label %lean_dec.exit25

14:                                               ; preds = %9
  %.not.i = icmp eq i32 %10, 0
  br i1 %.not.i, label %lean_dec.exit25, label %15

15:                                               ; preds = %14
  tail call void @lean_dec_ref_cold(ptr noundef nonnull %3) #5
  br label %lean_dec.exit25

lean_dec.exit25:                                  ; preds = %15, %14, %12, %6
  %16 = load ptr, ptr @l___private_Lean_Meta_Tactic_Grind_ForallProp_0__Lean_Meta_Grind_isEqTrueHyp_x3f___closed__3, align 8, !tbaa !10
  br label %69

17:                                               ; preds = %1
  %18 = tail call ptr @l_Lean_Expr_appArg(ptr noundef %3, ptr noundef nonnull inttoptr (i64 1 to ptr)) #5
  %19 = tail call ptr @l_Lean_Expr_appFnCleanup(ptr noundef %3, ptr noundef nonnull inttoptr (i64 1 to ptr)) #5
  %20 = tail call zeroext i8 @l_Lean_Expr_isApp(ptr noundef %19) #5
  %21 = icmp eq i8 %20, 0
  br i1 %21, label %22, label %42

22:                                               ; preds = %17
  %23 = ptrtoint ptr %19 to i64
  %24 = and i64 %23, 1
  %.not35 = icmp eq i64 %24, 0
  br i1 %.not35, label %25, label %lean_dec.exit24

25:                                               ; preds = %22
  %26 = load i32, ptr %19, align 4, !tbaa !4
  %27 = icmp sgt i32 %26, 1
  br i1 %27, label %28, label %30, !prof !9

28:                                               ; preds = %25
  %29 = add nsw i32 %26, -1
  store i32 %29, ptr %19, align 4, !tbaa !4
  br label %lean_dec.exit24

30:                                               ; preds = %25
  %.not.i26 = icmp eq i32 %26, 0
  br i1 %.not.i26, label %lean_dec.exit24, label %31

31:                                               ; preds = %30
  tail call void @lean_dec_ref_cold(ptr noundef nonnull %19) #5
  br label %lean_dec.exit24

lean_dec.exit24:                                  ; preds = %31, %30, %28, %22
  %32 = ptrtoint ptr %18 to i64
  %33 = and i64 %32, 1
  %.not36 = icmp eq i64 %33, 0
  br i1 %.not36, label %34, label %lean_dec.exit23

34:                                               ; preds = %lean_dec.exit24
  %35 = load i32, ptr %18, align 4, !tbaa !4
  %36 = icmp sgt i32 %35, 1
  br i1 %36, label %37, label %39, !prof !9

37:                                               ; preds = %34
  %38 = add nsw i32 %35, -1
  store i32 %38, ptr %18, align 4, !tbaa !4
  br label %lean_dec.exit23

39:                                               ; preds = %34
  %.not.i28 = icmp eq i32 %35, 0
  br i1 %.not.i28, label %lean_dec.exit23, label %40

40:                                               ; preds = %39
  tail call void @lean_dec_ref_cold(ptr noundef nonnull %18) #5
  br label %lean_dec.exit23

lean_dec.exit23:                                  ; preds = %40, %39, %37, %lean_dec.exit24
  %41 = load ptr, ptr @l___private_Lean_Meta_Tactic_Grind_ForallProp_0__Lean_Meta_Grind_isEqTrueHyp_x3f___closed__3, align 8, !tbaa !10
  br label %69

42:                                               ; preds = %17
  %43 = tail call ptr @l_Lean_Expr_appFnCleanup(ptr noundef %19, ptr noundef nonnull inttoptr (i64 1 to ptr)) #5
  %44 = load ptr, ptr @l___private_Lean_Meta_Tactic_Grind_ForallProp_0__Lean_Meta_Grind_isEqTrueHyp_x3f___closed__5, align 8, !tbaa !10
  %45 = tail call zeroext i8 @l_Lean_Expr_isConstOf(ptr noundef %43, ptr noundef %44) #5
  %46 = ptrtoint ptr %43 to i64
  %47 = and i64 %46, 1
  %.not = icmp eq i64 %47, 0
  br i1 %.not, label %48, label %lean_dec.exit22

48:                                               ; preds = %42
  %49 = load i32, ptr %43, align 4, !tbaa !4
  %50 = icmp sgt i32 %49, 1
  br i1 %50, label %51, label %53, !prof !9

51:                                               ; preds = %48
  %52 = add nsw i32 %49, -1
  store i32 %52, ptr %43, align 4, !tbaa !4
  br label %lean_dec.exit22

53:                                               ; preds = %48
  %.not.i30 = icmp eq i32 %49, 0
  br i1 %.not.i30, label %lean_dec.exit22, label %54

54:                                               ; preds = %53
  tail call void @lean_dec_ref_cold(ptr noundef nonnull %43) #5
  br label %lean_dec.exit22

lean_dec.exit22:                                  ; preds = %54, %53, %51, %42
  %55 = icmp eq i8 %45, 0
  br i1 %55, label %56, label %67

56:                                               ; preds = %lean_dec.exit22
  %57 = ptrtoint ptr %18 to i64
  %58 = and i64 %57, 1
  %.not34 = icmp eq i64 %58, 0
  br i1 %.not34, label %59, label %lean_dec.exit

59:                                               ; preds = %56
  %60 = load i32, ptr %18, align 4, !tbaa !4
  %61 = icmp sgt i32 %60, 1
  br i1 %61, label %62, label %64, !prof !9

62:                                               ; preds = %59
  %63 = add nsw i32 %60, -1
  store i32 %63, ptr %18, align 4, !tbaa !4
  br label %lean_dec.exit

64:                                               ; preds = %59
  %.not.i32 = icmp eq i32 %60, 0
  br i1 %.not.i32, label %lean_dec.exit, label %65

65:                                               ; preds = %64
  tail call void @lean_dec_ref_cold(ptr noundef nonnull %18) #5
  br label %lean_dec.exit

lean_dec.exit:                                    ; preds = %65, %64, %62, %56
  %66 = load ptr, ptr @l___private_Lean_Meta_Tactic_Grind_ForallProp_0__Lean_Meta_Grind_isEqTrueHyp_x3f___closed__3, align 8, !tbaa !10
  br label %69

67:                                               ; preds = %lean_dec.exit22
  %68 = tail call ptr @lean_apply_1(ptr noundef %2, ptr noundef %18) #5
  br label %69

69:                                               ; preds = %lean_dec.exit23, %67, %lean_dec.exit, %lean_dec.exit25
  %.0 = phi ptr [ %16, %lean_dec.exit25 ], [ %41, %lean_dec.exit23 ], [ %66, %lean_dec.exit ], [ %68, %67 ]
  ret ptr %.0
}